target datalayout = "e-m:e-p270:32:32-p271:32:32-p272:64:64-i64:64-i128:128-f80:128-n8:16:32:64-S128"
target triple = "x86_64-pc-linux-gnu"

%struct.RFILE = type { ptr, i32, ptr, ptr, ptr, ptr, i64, ptr, i32 }

; Function Attrs: nounwind uwtable
define internal i32 @r_short(ptr noundef %0) #0 {
  %2 = alloca ptr, align 8
  %3 = alloca i16, align 2
  %4 = alloca ptr, align 8
  store ptr %0, ptr %2, align 8, !tbaa !23
  call void @llvm.lifetime.start.p0(i64 2, ptr %3) #11
  store i16 -1, ptr %3, align 2, !tbaa !35
  call void @llvm.lifetime.start.p0(i64 8, ptr %4) #11
  %5 = load ptr, ptr %2, align 8, !tbaa !23
  %6 = call ptr @r_string(i64 noundef 2, ptr noundef %5)
  store ptr %6, ptr %4, align 8, !tbaa !37
  %7 = load ptr, ptr %4, align 8, !tbaa !37
  %8 = icmp ne ptr %7, null
  br i1 %8, label %9, label %31

9:                                                ; preds = %1
  %10 = load ptr, ptr %4, align 8, !tbaa !37
  %11 = getelementptr i8, ptr %10, i64 0
  %12 = load i8, ptr %11, align 1, !tbaa !24
  %13 = zext i8 %12 to i16
  store i16 %13, ptr %3, align 2, !tbaa !35
  %14 = load ptr, ptr %4, align 8, !tbaa !37
  %15 = getelementptr i8, ptr %14, i64 1
  %16 = load i8, ptr %15, align 1, !tbaa !24
  %17 = zext i8 %16 to i32
  %18 = shl i32 %17, 8
  %19 = load i16, ptr %3, align 2, !tbaa !35
  %20 = sext i16 %19 to i32
  %21 = or i32 %20, %18
  %22 = trunc i32 %21 to i16
  store i16 %22, ptr %3, align 2, !tbaa !35
  %23 = load i16, ptr %3, align 2, !tbaa !35
  %24 = sext i16 %23 to i32
  %25 = and i32 %24, 32768
  %26 = sub i32 0, %25
  %27 = load i16, ptr %3, align 2, !tbaa !35
  %28 = sext i16 %27 to i32
  %29 = or i32 %28, %26
  %30 = trunc i32 %29 to i16
  store i16 %30, ptr %3, align 2, !tbaa !35
  br label %31

31:                                               ; preds = %9, %1
  %32 = load i16, ptr %3, align 2, !tbaa !35
  %33 = sext i16 %32 to i32
  call void @llvm.lifetime.end.p0(i64 8, ptr %4) #11
  call void @llvm.lifetime.end.p0(i64 2, ptr %3) #11
  ret i32 %33
}

; Function Attrs: nounwind uwtable
define dso_local i32 @PyMarshal_ReadShortFromFile(ptr noundef %0) #0 {
  %2 = alloca ptr, align 8
  %3 = alloca %struct.RFILE, align 8
  %4 = alloca i32, align 4
  store ptr %0, ptr %2, align 8, !tbaa !8
  call void @llvm.lifetime.start.p0(i64 72, ptr %3) #11
  call void @llvm.lifetime.start.p0(i64 4, ptr %4) #11
  %5 = getelementptr inbounds nuw %struct.RFILE, ptr %3, i32 0, i32 2
  store ptr null, ptr %5, align 8, !tbaa !29
  %6 = load ptr, ptr %2, align 8, !tbaa !8
  %7 = getelementptr inbounds nuw %struct.RFILE, ptr %3, i32 0, i32 0
  store ptr %6, ptr %7, align 8, !tbaa !31
  %8 = getelementptr inbounds nuw %struct.RFILE, ptr %3, i32 0, i32 3
  store ptr null, ptr %8, align 8, !tbaa !32
  %9 = getelementptr inbounds nuw %struct.RFILE, ptr %3, i32 0, i32 4
  store ptr null, ptr %9, align 8, !tbaa !33
  %10 = getelementptr inbounds nuw %struct.RFILE, ptr %3, i32 0, i32 5
  store ptr null, ptr %10, align 8, !tbaa !34
  %11 = call i32 @r_short(ptr noundef %3)
  store i32 %11, ptr %4, align 4, !tbaa !11
  %12 = getelementptr inbounds nuw %struct.RFILE, ptr %3, i32 0, i32 5
  %13 = load ptr, ptr %12, align 8, !tbaa !34
  %14 = icmp ne ptr %13, null
  br i1 %14, label %15, label %18

15:                                               ; preds = %1
  %16 = getelementptr inbounds nuw %struct.RFILE, ptr %3, i32 0, i32 5
  %17 = load ptr, ptr %16, align 8, !tbaa !34
  call void @PyMem_Free(ptr noundef %17)
  br label %18

18:                                               ; preds = %15, %1
  %19 = load i32, ptr %4, align 4, !tbaa !11
  call void @llvm.lifetime.end.p0(i64 4, ptr %4) #11
  call void @llvm.lifetime.end.p0(i64 72, ptr %3) #11
  ret i32 %19
}