; Function Attrs: nounwind uwtable
define dso_local range(i32 -32768, 32768) i32 @PyMarshal_ReadShortFromFile(ptr noundef %0) local_unnamed_addr #0 {
  %2 = alloca %struct.RFILE, align 8
  call void @llvm.lifetime.start.p0(i64 72, ptr nonnull %2) #11
  %3 = getelementptr inbounds nuw i8, ptr %2, i64 16
  store ptr null, ptr %3, align 8, !tbaa !43
  store ptr %0, ptr %2, align 8, !tbaa !45
  %4 = getelementptr inbounds nuw i8, ptr %2, i64 24
  %5 = getelementptr inbounds nuw i8, ptr %2, i64 40
  call void @llvm.memset.p0.i64(ptr noundef nonnull align 8 dereferenceable(24) %4, i8 0, i64 24, i1 false)
  %6 = call fastcc ptr @r_string(i64 noundef 2, ptr noundef nonnull %2)
  %.not.i = icmp eq ptr %6, null
  br i1 %.not.i, label %r_short.exit, label %7

7:                                                ; preds = %1
  %8 = load i16, ptr %6, align 1
  %9 = sext i16 %8 to i32
  br label %r_short.exit

r_short.exit:                                     ; preds = %1, %7
  %.0.i = phi i32 [ %9, %7 ], [ -1, %1 ]
  %10 = load ptr, ptr %5, align 8, !tbaa !46
  %.not = icmp eq ptr %10, null
  br i1 %.not, label %12, label %11

11:                                               ; preds = %r_short.exit
  tail call void @PyMem_Free(ptr noundef nonnull %10) #11
  br label %12

12:                                               ; preds = %11, %r_short.exit
  call void @llvm.lifetime.end.p0(i64 72, ptr nonnull %2) #11
  ret i32 %.0.i
}